target datalayout = "e-m:e-p270:32:32-p271:32:32-p272:64:64-i64:64-i128:128-f80:128-n8:16:32:64-S128"
target triple = "x86_64-pc-linux-gnu"

%struct.rlimit = type { i64, i64 }

@.str.69 = private unnamed_addr constant [10 x i8] c"setrlimit\00", align 1

; Function Attrs: nounwind uwtable
define i32 @opt_timelimit(ptr noundef %0, ptr noundef %1, ptr noundef %2) #0 {
  %4 = alloca i32, align 4
  %5 = alloca ptr, align 8
  %6 = alloca ptr, align 8
  %7 = alloca ptr, align 8
  %8 = alloca i32, align 4
  %9 = alloca double, align 8
  %10 = alloca %struct.rlimit, align 8
  %11 = alloca i32, align 4
  %12 = alloca %struct.rlimit, align 8
  store ptr %0, ptr %5, align 8, !tbaa !26
  store ptr %1, ptr %6, align 8, !tbaa !23
  store ptr %2, ptr %7, align 8, !tbaa !23
  call void @llvm.lifetime.start.p0(i64 4, ptr %8) #12
  call void @llvm.lifetime.start.p0(i64 8, ptr %9) #12
  call void @llvm.lifetime.start.p0(i64 16, ptr %10) #12
  %13 = load ptr, ptr %6, align 8, !tbaa !23
  %14 = load ptr, ptr %7, align 8, !tbaa !23
  %15 = call i32 @parse_number(ptr noundef %13, ptr noundef %14, i32 noundef 4, double noundef 0.000000e+00, double noundef 0x41DFFFFFFFC00000, ptr noundef %9)
  store i32 %15, ptr %8, align 4, !tbaa !16
  %16 = load i32, ptr %8, align 4, !tbaa !16
  %17 = icmp slt i32 %16, 0
  br i1 %17, label %18, label %20

18:                                               ; preds = %3
  %19 = load i32, ptr %8, align 4, !tbaa !16
  store i32 %19, ptr %4, align 4
  store i32 1, ptr %11, align 4
  br label %32

20:                                               ; preds = %3
  %21 = getelementptr inbounds nuw %struct.rlimit, ptr %12, i32 0, i32 0
  %22 = load double, ptr %9, align 8, !tbaa !59
  %23 = fptoui double %22 to i64
  store i64 %23, ptr %21, align 8, !tbaa !147
  %24 = getelementptr inbounds nuw %struct.rlimit, ptr %12, i32 0, i32 1
  %25 = load double, ptr %9, align 8, !tbaa !59
  %26 = fadd nsz double %25, 1.000000e+00
  %27 = fptoui double %26 to i64
  store i64 %27, ptr %24, align 8, !tbaa !149
  call void @llvm.memcpy.p0.p0.i64(ptr align 8 %10, ptr align 8 %12, i64 16, i1 false), !tbaa.struct !150
  %28 = call i32 @setrlimit64(i32 noundef 0, ptr noundef %10) #12
  %29 = icmp ne i32 %28, 0
  br i1 %29, label %30, label %31

30:                                               ; preds = %20
  call void @perror(ptr noundef @.str.69) #15
  br label %31

31:                                               ; preds = %30, %20
  store i32 0, ptr %4, align 4
  store i32 1, ptr %11, align 4
  br label %32

32:                                               ; preds = %31, %18
  call void @llvm.lifetime.end.p0(i64 16, ptr %10) #12
  call void @llvm.lifetime.end.p0(i64 8, ptr %9) #12
  call void @llvm.lifetime.end.p0(i64 4, ptr %8) #12
  %33 = load i32, ptr %4, align 4
  ret i32 %33
}