; Function Attrs: nounwind uwtable
define range(i32 -2147483648, 1) i32 @opt_timelimit(ptr readnone captures(none) %0, ptr noundef %1, ptr noundef %2) #0 {
  %4 = alloca double, align 8
  %5 = alloca %struct.rlimit, align 8
  call void @llvm.lifetime.start.p0(i64 8, ptr nonnull %4) #15
  call void @llvm.lifetime.start.p0(i64 16, ptr nonnull %5) #15
  %6 = call i32 @parse_number(ptr noundef %1, ptr noundef %2, i32 noundef 4, double noundef 0.000000e+00, double noundef 0x41DFFFFFFFC00000, ptr noundef nonnull %4) #15
  %7 = icmp slt i32 %6, 0
  br i1 %7, label %15, label %8

8:                                                ; preds = %3
  %9 = load double, ptr %4, align 8, !tbaa !40
  %10 = fptoui double %9 to i64
  %11 = fadd nsz double %9, 1.000000e+00
  %12 = fptoui double %11 to i64
  store i64 %10, ptr %5, align 8, !tbaa !39
  %.sroa.2.0..sroa_idx = getelementptr inbounds nuw i8, ptr %5, i64 8
  store i64 %12, ptr %.sroa.2.0..sroa_idx, align 8, !tbaa !39
  %13 = call i32 @setrlimit64(i32 noundef 0, ptr noundef nonnull %5) #15
  %.not = icmp eq i32 %13, 0
  br i1 %.not, label %15, label %14

14:                                               ; preds = %8
  call void @perror(ptr noundef nonnull @.str.69) #18
  br label %15

15:                                               ; preds = %8, %14, %3
  %.0 = phi i32 [ %6, %3 ], [ 0, %14 ], [ 0, %8 ]
  call void @llvm.lifetime.end.p0(i64 16, ptr nonnull %5) #15
  call void @llvm.lifetime.end.p0(i64 8, ptr nonnull %4) #15
  ret i32 %.0
}